target datalayout = "e-m:e-p270:32:32-p271:32:32-p272:64:64-i64:64-i128:128-f80:128-n8:16:32:64-S128"
target triple = "x86_64-pc-linux-gnu"

%struct.ident_t = type { i32, i32, i32, i32, ptr }
%"class.ncnn::PReLU" = type { %"class.ncnn::Layer", i32, %"class.ncnn::Mat" }
%"class.ncnn::Layer" = type { ptr, i8, i8, i8, i8, i8, i8, i8, i8, i8, i8, i8, i8, i8, i8, i8, i8, i8, i8, i8, i8, i32, ptr, i32, %"class.std::__cxx11::basic_string", %"class.std::__cxx11::basic_string", %"class.std::vector", %"class.std::vector", %"class.std::vector.3", %"class.std::vector.3" }
%"class.std::__cxx11::basic_string" = type { %"struct.std::__cxx11::basic_string<char>::_Alloc_hider", i64, %union.anon }
%"struct.std::__cxx11::basic_string<char>::_Alloc_hider" = type { ptr }
%union.anon = type { i64, [8 x i8] }
%"class.std::vector" = type { %"struct.std::_Vector_base" }
%"struct.std::_Vector_base" = type { %"struct.std::_Vector_base<int, std::allocator<int>>::_Vector_impl" }
%"struct.std::_Vector_base<int, std::allocator<int>>::_Vector_impl" = type { %"struct.std::_Vector_base<int, std::allocator<int>>::_Vector_impl_data" }
%"struct.std::_Vector_base<int, std::allocator<int>>::_Vector_impl_data" = type { ptr, ptr, ptr }
%"class.std::vector.3" = type { %"struct.std::_Vector_base.4" }
%"struct.std::_Vector_base.4" = type { %"struct.std::_Vector_base<ncnn::Mat, std::allocator<ncnn::Mat>>::_Vector_impl" }
%"struct.std::_Vector_base<ncnn::Mat, std::allocator<ncnn::Mat>>::_Vector_impl" = type { %"struct.std::_Vector_base<ncnn::Mat, std::allocator<ncnn::Mat>>::_Vector_impl_data" }
%"struct.std::_Vector_base<ncnn::Mat, std::allocator<ncnn::Mat>>::_Vector_impl_data" = type { ptr, ptr, ptr }
%"class.ncnn::Mat" = type { ptr, ptr, i64, i32, ptr, i32, i32, i32, i32, i32, i64 }

@1 = private unnamed_addr constant %struct.ident_t { i32 0, i32 514, i32 0, i32 22, ptr @0 }, align 8

; Function Attrs: noinline noreturn nounwind uwtable
define linkonce_odr hidden void @__clang_call_terminate(ptr noundef %0) #7 comdat {
  %2 = call ptr @__cxa_begin_catch(ptr %0) #9
  call void @_ZSt9terminatev() #12
  unreachable
}

; Function Attrs: alwaysinline mustprogress nounwind uwtable
define linkonce_odr hidden noundef nonnull align 4 dereferenceable(4) ptr @_ZNK4ncnn3MatixEm(ptr noundef nonnull align 8 dereferenceable(72) %0, i64 noundef %1) #3 comdat align 2 {
  %3 = alloca ptr, align 8
  %4 = alloca i64, align 8
  store ptr %0, ptr %3, align 8, !tbaa !36
  store i64 %1, ptr %4, align 8, !tbaa !64
  %5 = load ptr, ptr %3, align 8
  %6 = getelementptr inbounds nuw %"class.ncnn::Mat", ptr %5, i32 0, i32 0
  %7 = load ptr, ptr %6, align 8, !tbaa !52
  %8 = load i64, ptr %4, align 8, !tbaa !64
  %9 = getelementptr inbounds nuw float, ptr %7, i64 %8
  ret ptr %9
}

; Function Attrs: alwaysinline norecurse nounwind uwtable
define internal void @_ZNK4ncnn5PReLU15forward_inplaceERNS_3MatERKNS_6OptionE.omp_outlined(ptr noalias noundef %0, ptr noalias noundef %1, ptr noundef nonnull align 4 dereferenceable(4) %2, ptr noundef nonnull align 8 dereferenceable(8) %3, ptr noundef %4) #8 personality ptr @__gxx_personality_v0 {
  %6 = alloca ptr, align 8
  %7 = alloca ptr, align 8
  %8 = alloca ptr, align 8
  %9 = alloca ptr, align 8
  %10 = alloca ptr, align 8
  %11 = alloca i32, align 4
  %12 = alloca i32, align 4
  %13 = alloca i32, align 4
  %14 = alloca i32, align 4
  %15 = alloca i32, align 4
  %16 = alloca i32, align 4
  %17 = alloca i32, align 4
  %18 = alloca i32, align 4
  %19 = alloca i32, align 4
  store ptr %0, ptr %6, align 8, !tbaa !60
  store ptr %1, ptr %7, align 8, !tbaa !60
  store ptr %2, ptr %8, align 8, !tbaa !60
  store ptr %3, ptr %9, align 8, !tbaa !61
  store ptr %4, ptr %10, align 8, !tbaa !4
  %20 = load ptr, ptr %8, align 8, !tbaa !60
  %21 = load ptr, ptr %9, align 8, !tbaa !61
  %22 = load ptr, ptr %10, align 8, !tbaa !4
  call void @llvm.lifetime.start.p0(i64 4, ptr %11) #9
  call void @llvm.lifetime.start.p0(i64 4, ptr %12) #9
  %23 = load i32, ptr %20, align 4, !tbaa !40
  store i32 %23, ptr %12, align 4, !tbaa !40
  call void @llvm.lifetime.start.p0(i64 4, ptr %13) #9
  %24 = load i32, ptr %12, align 4, !tbaa !40
  %25 = sub nsw i32 %24, 0
  %26 = sdiv i32 %25, 1
  %27 = sub nsw i32 %26, 1
  store i32 %27, ptr %13, align 4, !tbaa !40
  call void @llvm.lifetime.start.p0(i64 4, ptr %14) #9
  store i32 0, ptr %14, align 4, !tbaa !40
  call void @llvm.lifetime.end.p0(i64 4, ptr %14) #9
  %28 = load i32, ptr %12, align 4, !tbaa !40
  %29 = icmp slt i32 0, %28
  br i1 %29, label %30, label %81

30:                                               ; preds = %5
  call void @llvm.lifetime.start.p0(i64 4, ptr %15) #9
  store i32 0, ptr %15, align 4, !tbaa !40
  call void @llvm.lifetime.start.p0(i64 4, ptr %16) #9
  %31 = load i32, ptr %13, align 4, !tbaa !40
  store i32 %31, ptr %16, align 4, !tbaa !40
  call void @llvm.lifetime.start.p0(i64 4, ptr %17) #9
  store i32 1, ptr %17, align 4, !tbaa !40
  call void @llvm.lifetime.start.p0(i64 4, ptr %18) #9
  store i32 0, ptr %18, align 4, !tbaa !40
  call void @llvm.lifetime.start.p0(i64 4, ptr %19) #9
  %32 = load ptr, ptr %6, align 8
  %33 = load i32, ptr %32, align 4, !tbaa !40
  call void @__kmpc_for_static_init_4(ptr @1, i32 %33, i32 34, ptr %18, ptr %15, ptr %16, ptr %17, i32 1, i32 1)
  %34 = load i32, ptr %16, align 4, !tbaa !40
  %35 = load i32, ptr %13, align 4, !tbaa !40
  %36 = icmp sgt i32 %34, %35
  br i1 %36, label %37, label %39

37:                                               ; preds = %30
  %38 = load i32, ptr %13, align 4, !tbaa !40
  br label %41

39:                                               ; preds = %30
  %40 = load i32, ptr %16, align 4, !tbaa !40
  br label %41

41:                                               ; preds = %39, %37
  %42 = phi i32 [ %38, %37 ], [ %40, %39 ]
  store i32 %42, ptr %16, align 4, !tbaa !40
  %43 = load i32, ptr %15, align 4, !tbaa !40
  store i32 %43, ptr %11, align 4, !tbaa !40
  br label %44

44:                                               ; preds = %74, %41
  %45 = load i32, ptr %11, align 4, !tbaa !40
  %46 = load i32, ptr %16, align 4, !tbaa !40
  %47 = icmp sle i32 %45, %46
  br i1 %47, label %49, label %48

48:                                               ; preds = %44
  br label %77

49:                                               ; preds = %44
  %50 = load i32, ptr %11, align 4, !tbaa !40
  %51 = mul nsw i32 %50, 1
  %52 = add nsw i32 0, %51
  store i32 %52, ptr %19, align 4, !tbaa !40
  %53 = load ptr, ptr %21, align 8, !tbaa !42
  %54 = load i32, ptr %19, align 4, !tbaa !40
  %55 = sext i32 %54 to i64
  %56 = getelementptr inbounds float, ptr %53, i64 %55
  %57 = load float, ptr %56, align 4, !tbaa !46
  %58 = fcmp fast olt float %57, 0.000000e+00
  br i1 %58, label %59, label %72

59:                                               ; preds = %49
  %60 = getelementptr inbounds nuw %"class.ncnn::PReLU", ptr %22, i32 0, i32 2
  %61 = load i32, ptr %19, align 4, !tbaa !40
  %62 = sext i32 %61 to i64
  %63 = invoke noundef nonnull align 4 dereferenceable(4) ptr @_ZNK4ncnn3MatixEm(ptr noundef nonnull align 8 dereferenceable(72) %60, i64 noundef %62)
          to label %64 unwind label %82

64:                                               ; preds = %59
  %65 = load float, ptr %63, align 4, !tbaa !46
  %66 = load ptr, ptr %21, align 8, !tbaa !42
  %67 = load i32, ptr %19, align 4, !tbaa !40
  %68 = sext i32 %67 to i64
  %69 = getelementptr inbounds float, ptr %66, i64 %68
  %70 = load float, ptr %69, align 4, !tbaa !46
  %71 = fmul fast float %70, %65
  store float %71, ptr %69, align 4, !tbaa !46
  br label %72

72:                                               ; preds = %64, %49
  br label %73

73:                                               ; preds = %72
  br label %74

74:                                               ; preds = %73
  %75 = load i32, ptr %11, align 4, !tbaa !40
  %76 = add nsw i32 %75, 1
  store i32 %76, ptr %11, align 4, !tbaa !40
  br label %44

77:                                               ; preds = %48
  br label %78

78:                                               ; preds = %77
  %79 = load ptr, ptr %6, align 8
  %80 = load i32, ptr %79, align 4, !tbaa !40
  call void @__kmpc_for_static_fini(ptr @1, i32 %80)
  call void @llvm.lifetime.end.p0(i64 4, ptr %19) #9
  call void @llvm.lifetime.end.p0(i64 4, ptr %18) #9
  call void @llvm.lifetime.end.p0(i64 4, ptr %17) #9
  call void @llvm.lifetime.end.p0(i64 4, ptr %16) #9
  call void @llvm.lifetime.end.p0(i64 4, ptr %15) #9
  br label %81

81:                                               ; preds = %78, %5
  call void @llvm.lifetime.end.p0(i64 4, ptr %13) #9
  call void @llvm.lifetime.end.p0(i64 4, ptr %12) #9
  call void @llvm.lifetime.end.p0(i64 4, ptr %11) #9
  ret void

82:                                               ; preds = %59
  %83 = landingpad { ptr, i32 }
          catch ptr null
  %84 = extractvalue { ptr, i32 } %83, 0
  call void @__clang_call_terminate(ptr %84) #12
  unreachable
}