; Function Attrs: alwaysinline norecurse nounwind uwtable
define internal void @_ZNK4ncnn5PReLU15forward_inplaceERNS_3MatERKNS_6OptionE.omp_outlined(ptr noalias noundef readonly captures(none) %0, ptr noalias readnone captures(none) %1, ptr noundef nonnull readonly align 4 captures(none) dereferenceable(4) %2, ptr noundef nonnull readonly align 8 captures(none) dereferenceable(8) %3, ptr noundef readonly captures(none) %4) #9 personality ptr @__gxx_personality_v0 {
  %6 = alloca i32, align 4
  %7 = alloca i32, align 4
  %8 = alloca i32, align 4
  %9 = alloca i32, align 4
  %10 = load i32, ptr %2, align 4, !tbaa !41
  %11 = icmp sgt i32 %10, 0
  br i1 %11, label %12, label %32

12:                                               ; preds = %5
  %13 = add nsw i32 %10, -1
  call void @llvm.lifetime.start.p0(i64 4, ptr nonnull %6) #10
  store i32 0, ptr %6, align 4, !tbaa !41
  call void @llvm.lifetime.start.p0(i64 4, ptr nonnull %7) #10
  store i32 %13, ptr %7, align 4, !tbaa !41
  call void @llvm.lifetime.start.p0(i64 4, ptr nonnull %8) #10
  store i32 1, ptr %8, align 4, !tbaa !41
  call void @llvm.lifetime.start.p0(i64 4, ptr nonnull %9) #10
  store i32 0, ptr %9, align 4, !tbaa !41
  %14 = load i32, ptr %0, align 4, !tbaa !41
  call void @__kmpc_for_static_init_4(ptr nonnull @1, i32 %14, i32 34, ptr nonnull %9, ptr nonnull %6, ptr nonnull %7, ptr nonnull %8, i32 1, i32 1)
  %15 = load i32, ptr %7, align 4, !tbaa !41
  %16 = call i32 @llvm.smin.i32(i32 %15, i32 %13)
  store i32 %16, ptr %7, align 4, !tbaa !41
  %17 = load i32, ptr %6, align 4, !tbaa !41
  %.not15 = icmp sgt i32 %17, %16
  br i1 %.not15, label %._crit_edge, label %.lr.ph

.lr.ph:                                           ; preds = %12
  %18 = load ptr, ptr %3, align 8, !tbaa !42
  %19 = getelementptr inbounds nuw i8, ptr %4, i64 216
  %20 = sext i32 %17 to i64
  %21 = add nsw i32 %16, 1
  br label %22

22:                                               ; preds = %.lr.ph, %31
  %indvars.iv = phi i64 [ %20, %.lr.ph ], [ %indvars.iv.next, %31 ]
  %23 = getelementptr inbounds float, ptr %18, i64 %indvars.iv
  %24 = load float, ptr %23, align 4, !tbaa !46
  %25 = fcmp fast olt float %24, 0.000000e+00
  br i1 %25, label %26, label %31

26:                                               ; preds = %22
  %27 = load ptr, ptr %19, align 8, !tbaa !16
  %28 = getelementptr inbounds nuw float, ptr %27, i64 %indvars.iv
  %29 = load float, ptr %28, align 4, !tbaa !46
  %30 = fmul fast float %29, %24
  store float %30, ptr %23, align 4, !tbaa !46
  br label %31

31:                                               ; preds = %26, %22
  %indvars.iv.next = add nsw i64 %indvars.iv, 1
  %lftr.wideiv = trunc i64 %indvars.iv.next to i32
  %exitcond.not = icmp eq i32 %21, %lftr.wideiv
  br i1 %exitcond.not, label %._crit_edge, label %22

._crit_edge:                                      ; preds = %31, %12
  call void @__kmpc_for_static_fini(ptr nonnull @1, i32 %14)
  call void @llvm.lifetime.end.p0(i64 4, ptr nonnull %9) #10
  call void @llvm.lifetime.end.p0(i64 4, ptr nonnull %8) #10
  call void @llvm.lifetime.end.p0(i64 4, ptr nonnull %7) #10
  call void @llvm.lifetime.end.p0(i64 4, ptr nonnull %6) #10
  br label %32

32:                                               ; preds = %._crit_edge, %5
  ret void
}